(lp0
F0.061088945405800003
aF0.021305031662199998
aF0.040954508376899998
aF0.030215644235900001
aF0.00295761040753
aF0.059166938044
aF0.024121783215000001
aF0.0089544115870400006
aF0.0066518929806599998
aF0.0177281422542
aF0.0092046726003100002
aF0.00297192375886
aF0.0231387570366
aF0.032131883297299997
aF0.025380432108900002
aF0.00245572447047
aF0.014341729324500001
aF0.0059282214476399997
aF0.059471180155599997
aF0.047537807269600003
aF0.044105688766800002
aF0.016902938349400001
aF0.049564613543500002
aF0.056445687943300002
aF0.059617756365299999
aF0.020902313789
aF0.065344797131500001
aF0.0114017556723
aF0.0093978080487799997
aF0.052484706789800002
aF0.0051761317620599998
aF0.059803942791099997
aF0.063605447805700002
aF0.016092344425300002
aF0.012103520607900001
aF0.045724804768500001
aF0.034515794946699999
aF0.015576342605700001
aF0.055038522727099998
aF0.040880697918099999
aF0.0082903262406500006
aF0.039640047878199997
aF0.042115070355399999
aF0.00334466534528
aF0.0113617038676
aF0.0432706001617
aF0.0169021205552
aF0.068050188821800001
aF0.00377045189375
aF0.064384551399600004
aF0.038536698298200001
aF0.0477588705783
aF0.034614637067700002
aF0.018911083559400001
aF0.022927819448
aF0.016964639532
aF0.037827338530600003
aF0.047123318205099997
aF0.013204088475899999
aF0.025161065438899999
aF0.0072349303677100001
aF0.02817453766350058
aF0.017979287478507307
aF0.056126077984642517
aF0.020605613855851621
aF0.053304537861139228
aF0.057053645890287982
aF0.030641058518165898
aF0.035260186484847619
aF0.027240668777614878
aF0.040040248808681088
aF0.042525223006499434
aF0.055600151609380817
aF0.0059341299297106312
aF0.041519643092144801
aF0.049145385181393005
aF0.039605607104951313
aF0.010083426910653994
aF0.041356221128137645
aF0.01072210041276557
aF0.03679660070352702
aF0.0082090706543697621
aF0.019649088297615365
aF0.02571321310324693
aF0.0029560834812712325
aF0.069171555875864946
aF0.035244370276068838
aF0.0082447630946172676
aF0.061929086132957813
aF0.01152329255180049
aF0.031048830620171733
aF0.012495216447777385
aF0.012151931977900999
aF0.011927979929299401
aF0.014567393443759851
aF0.026947206676541942
aF0.037142420537134395
aF0.041267220434897542
aF0.060593960898195645
aF0.035379271275435463
aF0.042574663394898002
aF0.033888865795520834
aF0.013549465307973978
aF0.047731475384354613
aF0.017584894364768552
aF0.06959040842936251
aF0.048435941274331075
aF0.017510033717997385
aF0.048286024967987909
aF0.009317048236093254
aF0.002559533310678601
aF0.022823611677145049
aF0.0036304257103133546
aF0.033708425663534575
aF0.025554652146965839
aF0.052739813417052452
aF0.05606162557663736
aF0.046189472220958115
aF0.013865221657822965
aF0.054354418085576166
aF0.0039674167239964857
aF0.015394473373498703
aF0.024103074354632568
aF0.064287349547405254
aF0.028718773340762289
aF0.030235189137134667
aF0.045591965682247972
aF0.027181566361457105
aF0.06857128615099467
aF0.041266891222477918
aF0.0029962126901763638
aF0.018642881685170976
aF0.01337961544457672
aF0.0023093580981583947
aF0.017510257074093018
aF0.013360710288850884
aF0.029536156517329014
aF0.04958063795186049
aF0.045254918316316325
aF0.021639994501160567
aF0.033051434379412388
aF0.047579693778956739
aF0.051302198154895194
aF0.00580856495740752
aF0.013544847267777415
aF0.029147286506023905
aF0.0061488165972429102
aF0.066882675235622566
aF0.041841089180724482
aF0.04585805642892974
aF0.03820232620744337
aF0.061570092457862623
aF0.013320457633444272
aF0.032862842933842028
aF0.045564829385878164
aF0.025386064545659767
aF0.067664379497373472
aF0.066176360947000204
aF0.0028571793115521483
aF0.010164265791516889
aF0.0072521587837832465
aF0.045247225493162624
aF0.051420842309183347
aF0.034311541310498135
aF0.058011254526298593
aF0.017120633805913898
aF0.051985889183125515
aF0.065011091212528044
aF0.032789513838113946
aF0.045375889101554878
aF0.015022699992995448
aF0.019095926515798126
aF0.023245522033565204
aF0.049138298293870154
aF0.027969480700829989
aF0.059490568878081372
aF0.034347182797277817
aF0.056967969920276022
aF0.043503184792789765
aF0.045601680093577561
aF0.013163350097341165
aF0.011457160335700718
aF0.047532315970003146
aF0.064712322530738595
aF0.041103960799389182
aF0.049440471525803366
aF0.066734676657103906
aF0.066827501560370886
aF0.048839804961203388
aF0.058868005525072382
aF0.025173648360984471
aF0.0073339354337018199
aF0.028120683539284361
aF0.042370802082313114
aF0.0030446854534527256
aF0.06746838889160682
aF0.06002524359674178
aF0.026020511312312047
aF0.006214237150918709
aF0.029110980672513997
aF0.044154563467487376
aF0.032632660436668466
aF0.003994513462089188
aF0.032342437192647781
aF0.0028721882537618448
aF0.030609080656598987
aF0.044773909258099619
aF0.022147224959500056
aF0.055858195213600803
aF0.059933132203542051
aF0.061215236101219019
aF0.03974112840417765
aF0.011411123877478368
aF0.035152268597229003
aF0.059953427705770869
aF0.0080520210612136829
aF0.054221770298621588
aF0.036416210646119586
aF0.02320913079941854
aF0.0422383105685145
aF0.036014430485833041
aF0.057939993671544218
aF0.012944478255157934
aF0.046011909732788653
aF0.054804085583187799
aF0.059716721070713456
aF0.038262146471512437
aF0.0036928158817949551
aF0.064028769967886687
aF0.067043631744206481
aF0.054985841600054472
aF0.059990324405843558
aF0.065009678212380878
aF0.057882936050748734
aF0.036006906688755759
aF0.0071950589220910466
aF0.030751206860320013
aF0.064653570445385597
aF0.033054955270846946
aF0.03917076508491079
aF0.053344756420133012
aF0.064895927498571163
aF0.064117422886740216
aF0.04002334362118911
aF0.021989276943419109
aF0.013848814138224372
aF0.05960239448408812
aF0.0051628815882241918
aF0.043543166837385829
aF0.062976567564385674
aF0.036278198096445793
aF0.043644947978413888
aF0.028960877282862202
aF0.059219086005158877
aF0.0041089635187421909
aF0.055177230877137023
aF0.059226356454206916
aF0.055158319670830278
aF0.021505571801098189
aF0.025762701811301227
aF0.024643609125588627
aF0.0074708980047795345
aF0.050178209498520678
aF0.055710606199805966
aF0.036404547277340923
aF0.048959252671745078
aF0.031027887545094959
aF0.060239370329623669
aF0.0048999040176418412
aF0.0415606931970047
aF0.048625862533742209
aF0.047877099210733812
aF0.043137598173497972
aF0.020719523393894219
aF0.010733293561288682
aF0.0084657035166107973
aF0.0095764524913872391
aF0.025281339014988365
aF0.032456995070779156
aF0.0086685906004856476
aF0.035235246125764563
aF0.056372062791599543
aF0.007504923488599765
aF0.04695546979705463
aF0.047434848682193553
aF0.019647020553084524
aF0.016187867312978662
a.(lp0
F11752.301823
aF29655.649560400001
aF26560.1482665
aF15354.0092891
aF10842.1085184
aF4010.0451996699999
aF2618.02211932
aF7651.09934316
aF31661.115960899999
aF9115.3814762300008
aF18080.5316045
aF26345.668293999999
aF16592.868451800001
aF26087.3271709
aF12482.4035754
aF2704.5786261600001
aF21191.380038700001
aF1711.4406205400001
aF30666.279537800001
aF20308.832389399999
aF7187.6200343399996
aF25871.8907574
aF14054.415346100001
aF1604.1425607900001
aF4323.4999201099999
aF17056.135918
aF3671.6743215400002
aF32585.271568100001
aF34932.8375658
aF24175.352101199998
aF35092.037634300003
aF29523.552655
aF33465.971212800003
aF1696.13614332
aF20152.671965400001
aF11306.2015056
aF25154.629277700002
aF24768.036796
aF20127.567307599998
aF17208.458957700001
aF29674.968905099999
aF22615.586059199999
aF17795.502922600001
aF23369.188035399999
aF21989.519940599999
aF32265.051193800002
aF20933.202312199999
aF32869.588719599997
aF19317.195738300001
aF16481.034246399999
aF10957.983656099999
aF15821.930120200001
aF30909.342386699998
aF24061.1881092
aF29409.612152400001
aF13826.9593661
aF15128.8865814
aF10355.112402500001
aF27365.1485794
aF28831.882590599998
aF1895.1023746999999
aF21857.475641293615
aF6784.8677388742717
aF1248.1844831832457
aF2052.6670510414442
aF10116.380473249576
aF5606.6823701942858
aF20058.25640902602
aF4623.5103593272979
aF34296.99759595684
aF31491.269440767541
aF5211.7895642269168
aF6690.1045265077573
aF11598.603156264579
aF25356.803856796345
aF12073.824659480681
aF27151.290956052013
aF26071.896865485851
aF29664.010216149003
aF33592.606202040719
aF16498.331450969396
aF12371.00216600129
aF13889.385107935674
aF12300.909055131277
aF33254.397113188446
aF27280.108072960902
aF29051.054020467225
aF23863.670349102827
aF24599.506422525537
aF3680.8268067700483
aF31552.339266953968
aF27248.216683039143
aF23846.139427373695
aF22728.297452163661
aF34810.315523015801
aF1203.8023436144413
aF23584.392519549878
aF18413.60972715951
aF20010.041371781757
aF25795.825648807619
aF35253.990128823272
aF19633.459915885956
aF24640.615367158021
aF7879.5578146767466
aF24787.704603520931
aF8519.1709314678974
aF16549.232947510325
aF12817.79180665813
aF19646.530007977806
aF1616.9706170669992
aF5495.2956908420056
aF21946.80488659364
aF25399.603198725021
aF31376.68214069476
aF1631.6606451882553
aF28227.248742217744
aF6641.6925508859094
aF16882.077581974303
aF28816.080643630045
aF11849.673119992203
aF3136.3434954095487
aF24900.46233072308
aF33025.342843272665
aF27495.991174097991
aF31468.914974351195
aF6432.6745202571719
aF29514.538486640664
aF7801.631794087235
aF2881.0176184951133
aF28426.41162100474
aF2437.8945910277412
aF31262.695803737042
aF9902.4138528826297
aF14827.325109913241
aF35190.641962962123
aF18772.648592057143
aF16992.307813387622
aF23879.485957523804
aF29522.721844505064
aF26335.750558568543
aF9398.6174370139488
aF11436.882250738323
aF26525.469378014452
aF11475.985635664525
aF6130.1666434633662
aF32499.884997452711
aF33382.58715826663
aF12574.541756028251
aF12494.913226810044
aF11987.328179506307
aF20700.666550497728
aF5043.3194698052594
aF5515.704357689453
aF5313.2895344793205
aF12321.583288477104
aF27959.545065520451
aF11617.415590798666
aF31393.932092731622
aF18111.008927180519
aF11611.470145824936
aF9056.0281919173249
aF35695.939571011673
aF30590.205586509026
aF30403.366103246528
aF16202.075642376712
aF7341.3526278788668
aF14213.154343261687
aF2017.5791366572435
aF28253.832720136445
aF13518.819788895629
aF9855.5747732216587
aF5317.3899778688537
aF11683.27289590454
aF13968.924850302106
aF10102.77650757636
aF11382.102189723799
aF29236.807487493301
aF21357.869184662384
aF2493.4741496078695
aF1652.7560884770421
aF24652.464477049951
aF32656.041955619647
aF31201.257905131675
aF14856.150834795822
aF34356.470955465345
aF13679.851885423646
aF4815.6392249966575
aF1366.4917124620513
aF2236.5943870336591
aF30227.775443638082
aF30267.451059815336
aF19368.897069404396
aF5892.2950306372122
aF23503.412125102877
aF16440.825566384869
aF32598.402342325513
aF6704.3075519650374
aF25767.410079346508
aF15172.216334578317
aF29635.527785264876
aF23314.502178454153
aF26666.290911318745
aF25400.880748076994
aF29914.493982008924
aF17829.697920924616
aF34404.079799086976
aF13701.809755099615
aF6854.7916794058829
aF1951.0001211022279
aF4796.2618490466584
aF6647.2003974841455
aF22204.374771339724
aF9903.4856489371032
aF34734.944636290296
aF34577.422087952211
aF21509.133096551763
aF11989.192464811935
aF21427.140626772885
aF17983.124197670641
aF34844.511952931476
aF9200.284930807833
aF28319.844874472314
aF35122.161094865769
aF15548.576613884996
aF5139.0106264559845
aF17087.51451892532
aF7460.7239902437213
aF27273.1443651072
aF1288.4600407620264
aF5803.456352574738
aF4239.323526149632
aF3335.6380429105125
aF20135.730425193262
aF31126.726423903125
aF19032.049356542306
aF34999.279773538095
aF1353.008473330885
aF15308.63281989867
aF6344.135805386828
aF3097.7578031309667
aF15913.850872072711
aF34245.312654592744
aF28335.727209184319
aF25456.435489855179
aF27086.422134688873
aF18478.88125325842
aF31614.738837611618
aF4123.5301805822946
aF29821.454548444141
aF19694.03615082545
aF6396.3483863373576
aF14305.331583676667
aF14828.551409530686
aF31822.388063204689
aF33805.983371834423
aF20916.551185785789
aF32047.335572494077
aF27517.912973155959
aF14554.650954402534
aF26857.274208403323
aF24155.010319779347
aF22026.898299762423
aF28469.748453258628
aF15537.55262453875
aF25560.34275734831
aF33082.06552764825
aF34057.873660759273
aF24437.022187940634
aF28318.184820434406
aF20939.520450149608
aF6730.9338285480053
aF25743.844716699266
aF20405.693662032034
aF30674.099928347721
aF35182.171552729538
aF22256.297717223115
aF18937.559190278578
aF33734.973590482659
aF33180.917092708689
aF1931.4853184972244
aF1929.1733686670502
aF16009.996241967026
aF21103.882455837756
aF23201.707715307544
aF20590.813490109525
aF3947.068121788624
aF10394.150020901752
a.(lp0
F0.075439864270800003
aF0.88180181702500005
aF1.01596963707
aF0.29508777204600001
aF0.182746903904
aF0.13120120108700001
aF0.118999535362
aF0.256733494088
aF1.2476799436599999
aF0.489848044155
aF0.32087426859399998
aF0.61734690968999995
aF0.58178562014500002
aF0.18250490803800001
aF0.63023582486999996
aF0.17848449719199999
aF0.97362265873599996
aF0.126906470626
aF0.66488337658800001
aF0.36664337123099999
aF0.218499053488
aF0.71211481657499998
aF0.65675927982100002
aF0.107788503508
aF0.18671074429500001
aF0.87569304474099996
aF0.155818333334
aF1.26932841608
aF1.1467437385100001
aF0.55637088031899995
aF0.97850235714699996
aF0.95976978342399999
aF0.92114060068299997
aF0.120889175766
aF0.18658316641200001
aF0.470408860416
aF0.33057405075899998
aF0.379962394476
aF0.64404465505700004
aF0.451763049252
aF0.44426632598600002
aF0.85226095123900003
aF0.67912129731799997
aF0.58443444255599997
aF0.83788499080099998
aF0.59621969969699995
aF0.18905201066300001
aF0.31218870933100001
aF0.35150851118999998
aF0.26664026981799999
aF0.30214286697600001
aF0.141428543021
aF0.58464799095800002
aF0.39232803632800001
aF0.71102328974499995
aF0.25111677331100002
aF0.48804128002399999
aF0.037164958901899997
aF1.0146341668200001
aF0.95296828241700005
aF0.047627553875900001
aF0.80410537367999491
aF0.43673397743773318
aF0.11961568592639599
aF0.20057751711322105
aF0.35123731133172387
aF0.32072897990560151
aF0.36599468018838188
aF0.044361691571400887
aF0.25482214615646737
aF0.71809175173769169
aF0.028407471859416195
aF0.13352654493173161
aF0.30261226149810966
aF0.47559393848664161
aF0.50333817040587947
aF0.16076368554771425
aF0.65729595366295435
aF0.9686507701238023
aF1.0728844851672827
aF0.19631481103607792
aF0.39354004744416399
aF0.4525932435041834
aF0.60942659697389723
aF1.414772006095576
aF0.81308080788554216
aF0.6958970115030525
aF0.90952780246006404
aF0.36567414647071317
aF0.27543642702202376
aF0.63321756910908245
aF0.27234196341574246
aF0.31741301600566685
aF0.21543858622754797
aF1.1638968928861646
aF0.040582739400202981
aF0.64410688869053212
aF0.46065193747547956
aF0.56850896316198052
aF0.41327790770169959
aF1.101920620756548
aF0.60170435357395824
aF0.36110723597472322
aF0.16930787766350286
aF0.80977695954874818
aF0.20874342886811101
aF0.55710947886551032
aF0.36667083254948019
aF0.061922159574756684
aF0.045195741575459095
aF0.1407488036736517
aF0.40624768066350592
aF0.90168465095274475
aF0.54996758688112335
aF0.025638354272624533
aF0.46735459328607182
aF0.3043236672449941
aF0.59924744691470422
aF0.65316278261141814
aF0.42860573819695102
aF0.057515292824937315
aF0.76549156279148445
aF0.88016749777386494
aF0.16261465613779774
aF0.55083516410001832
aF0.26845578978415141
aF0.50883356437163529
aF0.3522919145132406
aF0.0515014756325953
aF0.5954073844867781
aF0.12130714482320853
aF0.94078896393463973
aF0.34219965421958681
aF0.5740662756966628
aF0.87262858596736592
aF0.48361533164389525
aF0.25884341871732253
aF0.60970810444975665
aF0.46435956591898164
aF0.91028898009686143
aF0.29682564155087243
aF0.3042806438878129
aF0.90129781091176409
aF0.43377561698525752
aF0.24096579657929743
aF0.92387971479449926
aF0.59556735541321271
aF0.34839521108214583
aF0.36030046182204589
aF0.57880976008947038
aF0.91900546237268432
aF0.14304291689199183
aF0.37398139466214636
aF0.15874802538919833
aF0.11338362955952719
aF1.3414544065520002
aF0.44429898380951621
aF0.60648870229123242
aF0.14232626296979473
aF0.17045823198961318
aF0.40701560350303545
aF0.83659662376374999
aF1.0006558619263859
aF1.0269155360968276
aF0.6858768393229896
aF0.27761368932372665
aF0.74771581301484147
aF0.20604271474524102
aF0.73224045942243421
aF0.58722548420910037
aF0.26961107666425932
aF0.22576606054347098
aF0.28925448786829383
aF0.60241896053435673
aF0.57427790757433461
aF1.1480692336862235
aF3.3029608739254765
aF1.0335198976476934
aF0.63310590732977423
aF0.36722452875779277
aF3.026482575837778
aF2.3811369854840034
aF3.0869845464868955
aF1.4848034465679993
aF3.7175858562910657
aF1.7701445335366961
aF0.65284943562497655
aF0.38807070800355159
aF0.47574150769413209
aF3.2235080277131125
aF1.8191279425828444
aF2.2798216809549774
aF0.8387744257599965
aF2.587839084331911
aF0.6249641815580943
aF1.7966648528695948
aF0.94897828081858637
aF0.69723586267571025
aF2.0640924048149656
aF2.6832053794585424
aF2.4943148106497413
aF3.0282837665770557
aF2.8422211078890718
aF2.4889655710353336
aF0.57745729724939687
aF3.6138575909280597
aF0.72056361270607816
aF1.2354071600424732
aF0.25568668508518255
aF0.86000097339457593
aF1.1856792954747226
aF2.7283899782165992
aF1.6394970541917719
aF3.1863616555212286
aF3.499384435591244
aF2.3029343296516771
aF1.8043016896872015
aF2.4535273796816202
aF2.3444292531412465
aF3.3098854306350964
aF1.4733030603859401
aF2.5900217881028631
aF3.1484946230376272
aF1.5457438321829791
aF0.85143714206400611
aF0.64267397827105188
aF0.92283868959012094
aF1.5404825587270863
aF0.39819968979200249
aF0.85341705457458195
aF0.16923528356405459
aF0.79201076017199867
aF2.5711437850368015
aF3.2640843512169448
aF2.2386690163271017
aF3.7804026360646974
aF0.23602347697092022
aF1.558765250618338
aF1.0457358809369925
aF0.57525207386989841
aF2.1090450868836905
aF3.0212996836325945
aF3.257447059707451
aF2.9738564829377596
aF1.1931937641165926
aF2.2006461421170287
aF3.3414482689497844
aF0.91524744244374767
aF1.6673785710961717
aF0.87323286088590568
aF1.050282130185926
aF1.7128577565701586
aF1.7084977671939361
aF2.1307163430476197
aF2.8530285822590344
aF2.5840190824961051
aF3.4723782640487992
aF2.9659121742014598
aF1.4011524044821391
aF2.9364113094926294
aF2.8613533591943461
aF2.2638615646386766
aF0.78391816326488328
aF1.6414775641644899
aF2.9405781538479729
aF2.4670329235689485
aF2.0065574057419915
aF1.9744344576182844
aF1.3242785747042767
aF2.6673994733109891
aF0.81145352848312802
aF2.9502446600890746
aF1.7017291367440355
aF3.2005112010769983
aF1.5339401298273341
aF2.2782004986930207
aF2.1705614050603583
aF1.652879191947201
aF3.4211827732466449
aF0.43945673352816139
aF0.37503621676178056
aF2.1731193106514248
aF1.7398975239158965
aF2.8419350583982892
aF2.5020572129439453
aF0.77641157194768184
aF1.626286460727544
a.(lp0
F0.0098117570161700002
aF0.020892451328400001
aF0.0026271959313800002
aF0.0076402939420999998
aF0.019005135219800001
aF0.000406787582466
aF0.0013606074786099999
aF0.0124462207089
aF0.0029403389357299998
aF0.017682942349599998
aF0.018829834061799999
aF0.0054618494783800001
aF0.0026770340144300002
aF0.0025446506919100001
aF0.011072707962299999
aF0.0289207740613
aF0.0069864486667
aF0.0063749638932000001
aF0.0469315977964
aF0.031466306701500003
aF0.024791885991799999
aF0.0048062602576000001
aF0.029188110789899999
aF0.0123473533102
aF0.0242996445573
aF0.0027530913194299999
aF0.033446655324700002
aF0.025826117686499998
aF0.012955926593099999
aF0.0070876240465599996
aF0.020413248010199999
aF0.0028780613812199999
aF0.0097632455831299994
aF0.025264499053299999
aF0.0065651798883900004
aF0.044690629118200001
aF0.0026986635249199998
aF0.0018931519178000001
aF0.0033107255421299998
aF0.0016696609887100001
aF0.00014026710673900001
aF0.0084311902096599993
aF0.00363605269661
aF0.00112408880333
aF0.00049339655921600001
aF0.00091094906688599998
aF0.0094950481482900008
aF0.0064893924110700002
aF0.00180403924028
aF0.0150883081755
aF0.00010446316591400001
aF0.0099643551455300006
aF0.0077913409969800002
aF0.0058637572864599996
aF0.043291608255699998
aF0.0083930573683200001
aF0.0116858201857
aF0.033046082238999998
aF0.012143814049299999
aF0.022641914737900001
aF0.050886901996899998
aF0.014940009762771586
aF0.031664723919459008
aF0.0084244199328439434
aF0.00072201081909415213
aF1.46793635101098e-05
aF0.00067751114898173591
aF0.0032319516143706774
aF0.0011465989432650524
aF0.0083188219420895684
aF0.011867062718246
aF7.1879289282336984e-05
aF0.0060807152472545454
aF0.021198492213685118
aF0.014866429252610308
aF0.037090774188708223
aF0.0056555927506573896
aF0.0044257497425454467
aF0.016820915316267566
aF0.011115363825408177
aF0.0019400353021116535
aF0.0019288385491010615
aF0.0017039889247192467
aF0.036874005892160083
aF0.010484355769228321
aF0.0081783889121440877
aF0.015688655540327872
aF0.018284365986893099
aF0.008997787368347273
aF0.0035553653293504501
aF0.0086514975063313997
aF0.010038924159151813
aF0.0054444456698050179
aF0.0067054080538259311
aF0.027995545916089687
aF0.0053317614769138461
aF0.0024783477386165179
aF0.00019066442719152451
aF0.0077246634526171986
aF0.011579899389685389
aF0.019127624973755662
aF0.0050623024257570679
aF0.001645127477192703
aF0.011761469198367722
aF0.016909658248752155
aF0.0040981085906895325
aF0.061174710315060499
aF0.00048651907264541462
aF0.001740721114726948
aF0.01000181328896416
aF0.0052274175851381279
aF0.00738140559673609
aF0.0051399340515751102
aF0.03474741727135517
aF0.027709868808107663
aF0.0045667351448362295
aF0.010411566100357433
aF0.011588614222453702
aF0.0028570778885909868
aF0.0067697615660078552
aF0.0093933805003346971
aF0.004195439563106482
aF0.008417568978581565
aF0.0050014292501868642
aF0.0077525792280556715
aF0.0048742962577579757
aF0.00028181070015043526
aF0.00033360249241204355
aF0.0033058373327972935
aF0.026046005528473238
aF0.0055568004343406283
aF9.081934300019388e-05
aF0.0064215609319425186
aF0.0033079889070396435
aF0.023100045939392376
aF0.014570967203014453
aF0.0084006135635216177
aF0.0094514760488464376
aF0.013604887746510466
aF0.00058879693446463387
aF0.025450840460729495
aF0.013959495714733863
aF0.0024861041256435098
aF0.03639020963811096
aF0.022823990210797569
aF0.0078919730322983255
aF0.0053124361044374815
aF0.02504103113031083
aF0.0063071565471475967
aF0.024956705417871039
aF0.0012150924910201376
aF0.00083955631683980752
aF0.042908491073173863
aF0.0031335112463570848
aF0.00097045609121294266
aF0.0043706666366931709
aF0.032798490346148339
aF0.021491065960113315
aF0.011396085635064414
aF0.0041273080790827556
aF0.0016973112389440915
aF0.0034039832485472628
aF0.0037679350396688802
aF0.00072927094170114183
aF0.018251634909033778
aF0.01369050556331348
aF0.0037764625125680336
aF0.0018606776608939665
aF0.0048669257938801632
aF0.0055920276246730913
aF0.030291255706294744
aF0.01058509607616819
aF0.01176453828822654
aF0.0061036645036042997
aF0.0031187830239332508
aF0.26049341198211057
aF0.71410895565472321
aF0.72451977340763574
aF0.30278295852499926
aF0.46308553705092192
aF0.28496126444597619
aF0.7369749140871491
aF0.25998269604652013
aF0.75266500771280642
aF0.77491465725100517
aF0.7835508417431446
aF0.24447634684110373
aF0.77676499809199684
aF0.12862418073078749
aF0.73143453732704555
aF0.58178634260034146
aF0.40372681047932979
aF0.10020507011366796
aF0.50741071241314106
aF0.58510641517638218
aF0.65371554349006611
aF0.75672415287784101
aF0.78841599555965214
aF0.53421959462701896
aF0.63381675935935378
aF0.77503120570503325
aF0.50050279242786289
aF0.42988749376967572
aF0.70558811993370463
aF0.3373408654306746
aF0.79809155777064744
aF0.55893853366662072
aF0.12203083511566214
aF0.65654662089341054
aF0.23357195208488082
aF0.34657005775876304
aF0.36511416813937947
aF0.74499563845877759
aF0.18205314575845644
aF0.46400011853702128
aF0.62990858480062495
aF0.32650476863382227
aF0.26064067702819649
aF0.68697408369852586
aF0.71883280535461325
aF0.75396799179924057
aF0.56294299790415103
aF0.49277171223178839
aF0.60547716041386657
aF0.55686041357254656
aF0.68687243731904235
aF0.12637636784958742
aF0.24398476336200858
aF0.42800405479013048
aF0.57959250420286379
aF0.75873778793094016
aF0.62385380041695926
aF0.11945503410205763
aF0.48422608006623691
aF0.12880233309989819
aF0.76948139776728908
aF0.25363914673500854
aF0.41826160023854497
aF0.29088303678980332
aF0.49657095964335363
aF0.48650776836642096
aF0.65587450106184841
aF0.14632890315277872
aF0.75115376316258531
aF0.57103482828633156
aF0.69629897711213995
aF0.72171143022720263
aF0.1189410279309128
aF0.62589632782614835
aF0.7062332380691575
aF0.1155349283930026
aF0.11142221844262618
aF0.79495039429108028
aF0.74793545280832252
aF0.11877508491765609
aF0.2992838896434652
aF0.14102223495265942
aF0.60500570312941837
aF0.12166730780006499
aF0.63716148108079884
aF0.211448484745278
aF0.66896605607172666
aF0.16238091504511526
aF0.28733362073199742
aF0.53668072802346489
aF0.33007435683563235
aF0.68968592756578673
aF0.59134740681542508
aF0.13757691686961249
aF0.68504575684626912
aF0.20358900870495084
aF0.20924743139306845
aF0.39939620435380796
aF0.17529505012423519
aF0.21261987115859493
aF0.78118353455768297
aF0.39137801141330963
aF0.47584606933701368
aF0.21173912108221388
aF0.37629785704749119
aF0.35753694131231506
aF0.29152803049823645
aF0.19126441236427022
aF0.63699836450491876
aF0.52308233971121576
aF0.59037322901602174
aF0.75408082649567776
a.(lp0
F31.5314165811
aF47.4304416409
aF213.18065920800001
aF8.5894444821799993
aF40.842857884200001
aF308.22900344300001
aF346.95209962600001
aF321.41506601999998
aF103.779885541
aF175.74125424799999
aF37.987586278400002
aF317.57887712799999
aF326.98328623399999
aF170.281806313
aF30.554781156600001
aF24.1338609658
aF256.69455449700001
aF284.68122896900002
aF20.9055319878
aF353.51799733600001
aF132.711749349
aF60.906694741700001
aF115.234159683
aF337.54654473900001
aF322.00907295799999
aF323.88999289899999
aF258.78311934300001
aF76.924047800699995
aF212.976713937
aF207.26228774500001
aF321.11785454699998
aF49.5876235271
aF168.265378083
aF20.266218078800001
aF212.100778392
aF195.49051140099999
aF111.46842557399999
aF131.223901778
aF357.04649907100003
aF337.379282692
aF94.739763361499996
aF66.306218556499999
aF272.38787213900002
aF165.672845612
aF315.23262184399999
aF55.3140089921
aF251.41732536000001
aF186.77214552999999
aF211.124526261
aF104.863261245
aF10.595307003
aF125.278110727
aF103.793852001
aF155.27541522199999
aF324.82694987500003
aF56.516929058300001
aF23.295757428600002
aF59.337658253199997
aF32.112330952000001
aF283.08560181399997
aF301.154540048
aF50.37311815508982
aF58.587740507575461
aF36.26601373695447
aF297.11476073341697
aF267.15088416796584
aF282.62092132131534
aF291.74982507137207
aF193.05799995757994
aF210.498086027189
aF36.113060459261888
aF351.14810216359569
aF204.99620705230478
aF10.349641323964907
aF305.70045105837943
aF63.241948136054788
aF295.85713620789699
aF133.47805335461987
aF251.37561695004342
aF171.24821811203554
aF16.808633621006265
aF293.64046092731627
aF253.22028204194865
aF334.65689577307069
aF237.89124726642245
aF50.323417762603327
aF172.80079394081054
aF52.150748951698418
aF118.96696632653922
aF225.96146401252653
aF270.34277262339918
aF105.41979994314977
aF215.11160849093537
aF278.08555412734097
aF172.22787359318588
aF49.964532907263745
aF358.10005393839651
aF4.4804441851447585
aF212.30497581042914
aF188.95969073001024
aF197.77697367728311
aF203.52563874050026
aF51.162339883372724
aF274.02051008591337
aF209.56875873900518
aF60.161618329010352
aF14.309756003532552
aF83.745146457052911
aF344.59640502805195
aF351.67508434272054
aF77.328284503414068
aF269.03065853331424
aF106.57487547871587
aF148.52737522002366
aF180.69084339270049
aF31.972211592956779
aF232.27758572363393
aF264.79450843954828
aF83.350840604567878
aF199.46758130487564
aF81.371948543625791
aF198.69832744737661
aF9.6796983392659541
aF140.31495633610402
aF21.162009541815525
aF95.849172046843847
aF124.93949453131002
aF245.83686525337228
aF266.65127039223694
aF274.53148339924098
aF162.68526750632125
aF243.86616585037777
aF126.08342333074656
aF278.48128619725867
aF90.214310287829633
aF4.1080473292962161
aF233.25889952250552
aF161.53388480590036
aF237.36685882994959
aF192.91221891090598
aF61.271320343347085
aF275.87424392560752
aF14.356219318195169
aF359.49450978046389
aF146.11680689475014
aF294.94979187392642
aF281.43485387583195
aF32.459148942609545
aF271.16322797539073
aF329.64287772600574
aF229.3497776196443
aF139.75648254035838
aF128.02180364129407
aF53.971238992940975
aF222.54737292622167
aF144.82338953393455
aF125.6364095113185
aF203.82013278222723
aF174.05960932759126
aF2.7191624295450012
aF259.20862983968692
aF341.75449887496234
aF267.84498744538035
aF74.094748716618014
aF310.52951876231242
aF290.47675088343715
aF335.74204759733738
aF76.269965401355066
aF217.45197117040331
aF89.721342181943427
aF6.9005141706867867
aF159.3424363186258
aF271.72975651358621
aF284.11365216701699
aF94.626054296991711
aF261.83712309272522
aF91.59409229603159
aF103.47949986687463
aF327.13383441067378
aF267.180500316436
aF172.23944007379316
aF345.08771714254141
aF90.060399394383396
aF89.603828239777684
aF7.3969454828171699
aF316.27976598154447
aF213.64682651073932
aF17.292153537390497
aF357.87723678470138
aF90.054483319405094
aF76.136525215306108
aF224.19510993180933
aF51.420225936916864
aF109.26947137377971
aF153.68363174289848
aF217.70085233339375
aF65.940067425008792
aF121.96347697474108
aF346.35837413187846
aF317.32399902467671
aF313.21003308644202
aF177.98331736495837
aF57.789066732314808
aF151.76249420990371
aF22.676731349784287
aF263.17360859763562
aF99.794506668484345
aF212.326547415536
aF296.56219272267407
aF97.656025979942314
aF147.85755997428012
aF66.626393361346643
aF97.041900408120625
aF305.05494309538483
aF51.219934689961406
aF319.97162497800076
aF194.7494281367035
aF46.864313236412386
aF83.816496612069727
aF50.577632269987092
aF289.24781945297838
aF294.88840656925862
aF87.797581136991852
aF34.156619080224225
aF117.90139334822724
aF204.93765301003145
aF8.9618181377825135
aF251.30667911101543
aF221.17685507883826
aF81.547869683974454
aF325.94972471041217
aF235.35471379171074
aF319.41868949204496
aF218.37869731955507
aF178.64450838967338
aF314.13793060938485
aF68.115577868407001
aF105.25367592103282
aF10.766374540948842
aF210.16775297722947
aF53.005300935687735
aF52.357794446293305
aF118.91251012262306
aF96.191996773864446
aF130.62511012483361
aF178.6840324516572
aF85.40286112923809
aF48.617261217193274
aF181.05056313898604
aF251.29085520380988
aF127.18567292490719
aF308.1812236341554
aF43.354338585552163
aF210.66295832608785
aF170.45323795998817
aF165.8594537164476
aF349.95466206117146
aF233.65604511929689
aF340.58106769328509
aF256.00755129751241
aF227.63486903955086
aF343.30648718314086
aF22.589104631549208
aF53.970502635810902
aF271.63020915196199
aF240.00121593525245
aF122.26659115618196
aF204.58865177556953
aF353.9426391120366
aF262.23762718900269
aF35.321498225613382
aF161.85911269929008
aF141.56079019991205
aF240.07191359092812
aF152.34938919702387
aF11.129136245480025
aF81.021464131768951
aF58.582874211463228
aF194.33268358085013
aF339.0560411394892
aF183.48152120350301
aF5.0623348238100263
aF310.07918624581305
aF212.78784345875229
aF347.22225901634926
aF115.51493723865453
aF213.22627760019284
a.(lp0
F7907.3922043800003
aF20403.4180567
aF6213.2486447199999
aF15256.1336637
aF4768.1697954700003
aF2374.8786510199998
aF1032.16023662
aF499.44245438799999
aF5577.6043555699998
aF5220.7554679100003
aF8684.1065028600005
aF24814.381490600001
aF6160.5058530200004
aF3065.6801478900002
aF12126.9929084
aF443.45421475000001
aF12049.488805200001
aF885.135775362
aF25587.794007100001
aF2633.2885118099998
aF6434.7959914000003
aF10778.451805000001
aF6017.16971018
aF836.90451575899999
aF578.40485959499995
aF1670.7843724500001
aF929.97218438200002
aF27896.8398762
aF21137.714595599999
aF7321.6027146899996
aF9833.8277923500009
aF21726.594997100001
aF4847.95917749
aF274.30477905599997
aF16101.467803699999
aF3879.4371578499999
aF13354.2363893
aF18932.180319300001
aF17619.2084278
aF15051.8442643
aF4402.5291017999998
aF21598.895767599999
aF15712.8787355
aF16871.3828244
aF3992.9600079500001
aF32112.548982100001
aF16015.760146000001
aF5224.7683947200003
aF14004.4338711
aF6725.3968066999996
aF2287.56702821
aF12442.8743049
aF13864.156068800001
aF12235.656025300001
aF21435.5155433
aF10169.933428099999
aF3874.3713388900001
aF1107.5266545300001
aF23456.183173099998
aF2548.2503848299998
aF90.498672866999996
aF8986.3208194268373
aF3333.6555902650848
aF309.44380773919272
aF319.12224066721291
aF8236.3124461192656
aF2319.2350775279342
aF4517.6891734580686
aF2051.6098744262613
aF5168.3997380232058
aF5380.0920842567366
aF1987.8840687017705
aF1284.6446270340571
aF1591.0486795888564
aF12924.717745492975
aF7254.4429004828089
aF6705.6591478882283
aF14000.763426304888
aF25039.544632481971
aF12613.676104252141
aF14895.970885982852
aF950.03803941554918
aF12535.550528849277
aF11716.946612463722
aF20925.374336892244
aF17759.524896976433
aF11700.340820203995
aF16888.061615196737
aF13097.674233969301
aF842.89197158713603
aF4059.6900413438384
aF5057.5175854483814
aF6275.4290876685682
aF1195.2927501250615
aF6280.8353256860973
aF631.62654314999384
aF4024.2275765060363
aF13282.469785390969
aF996.37761767755603
aF18582.94343599879
aF13909.687578186673
aF4856.9479959687724
aF22290.081432711308
aF2014.5187095166698
aF8888.2560332324319
aF6044.2335867128795
aF8836.3843212444808
aF10587.348713260202
aF6509.3812011498267
aF641.13621323588416
aF567.08203491664835
aF15816.434384757677
aF14383.445244231776
aF12994.931356235065
aF80.729717580995214
aF7212.2586080537531
aF124.45096039051789
aF5007.0017527688397
aF23402.992152045506
aF4736.3686772005058
aF1368.1457530080681
aF7256.8351402764729
aF5489.9569938813802
aF16153.13996124291
aF19518.13223922591
aF5296.0532793618841
aF649.67081715517429
aF3280.1972283503965
aF991.97405027222351
aF23420.836920063681
aF562.11427048829603
aF19633.808926744299
aF6760.1208282597372
aF2621.7575074582701
aF23247.302814655373
aF4881.303111546049
aF12935.31099302298
aF11081.171857959445
aF10811.01871770107
aF10293.041125090944
aF74.93143799254608
aF6831.6585592186093
aF23438.250148305524
aF10121.832896625567
aF1625.9047796236384
aF23265.732299498923
aF19188.961808232776
aF1879.1674162425034
aF11063.928647020482
aF1085.9081688690219
aF3015.3070910950787
aF4153.1027155948968
aF5251.0525462585319
aF562.6995073022938
aF6762.2192311286526
aF20352.295410867926
aF11027.694882619309
aF23987.755425904455
aF5807.9489928860166
aF9253.2181670386635
aF7835.6035261286115
aF14125.13466222139
aF12426.236993560353
aF19863.195163051802
aF15089.034957903343
aF2426.2286071729586
aF13877.801880286697
aF370.15788139285428
aF13912.9753030543
aF6146.947005299915
aF9311.9039703589024
aF2279.1758185202193
aF10618.955969474024
aF780.69557153593075
aF4056.2191678903791
aF9129.8406091427896
aF21860.941760035421
aF1288.4479898420266
aF2107.524361454176
aF547.52898898274213
aF22835.209926315725
aF31481.323868106814
aF28287.596133370978
aF11502.804733185567
aF12004.502411219251
aF880.87840709724799
aF4479.5773445113809
aF1113.14967739959
aF71.550215083224984
aF256.92277563878247
aF5434.7465411335688
aF18723.422645174825
aF3624.5134645639428
aF20483.145893720921
aF2502.6068410803878
aF8496.5102038525984
aF6573.6586796139054
aF21881.517848745822
aF2185.8183209573272
aF9684.5466847470871
aF4708.96795094144
aF12605.650202213532
aF21250.629456563594
aF736.18838844374102
aF4225.6634748515662
aF1303.7937651989137
aF8361.0903909104654
aF4640.7479112528954
aF340.91546714045427
aF3753.8872301256483
aF1002.118032291858
aF8139.8016548311025
aF9094.3615874065326
aF17777.137883716619
aF11322.091959586627
aF15963.20898573317
aF7707.6608857344208
aF19557.079437244029
aF9136.4638493640632
aF17903.828641249238
aF8448.1242522463272
aF22063.315529684794
aF29697.56172370823
aF2461.2060944674822
aF1641.0077606120203
aF14589.920130877486
aF47.496417456693337
aF24825.91110353687
aF1142.119751755524
aF1903.8944084073696
aF4105.7674795285711
aF2700.5766540426812
aF14075.202464030324
aF1086.6503224916571
aF10727.380436686673
aF27624.353928665576
aF1294.0449392498967
aF1737.3754798195052
aF1040.3912841142226
aF2006.3937077969683
aF958.50993199440938
aF4761.0513067721058
aF26770.558711185015
aF23654.58470469862
aF7846.376929732779
aF17089.916281437134
aF17418.979255194696
aF1780.3272404908239
aF6745.530623694086
aF6132.6215030570193
aF1539.5564409564004
aF5370.6707318623403
aF7203.8999780267295
aF18804.623045916986
aF15505.764475140946
aF9161.9580838587754
aF819.04306652012451
aF14868.732904416296
aF1119.432497351451
aF10303.054181017191
aF20167.933662280073
aF21107.12744394131
aF15454.475202049627
aF6994.7800805868737
aF1453.9064048982254
aF32944.650660970256
aF32013.170146773275
aF585.51841040386091
aF8306.5782837932638
aF10164.697403230886
aF443.27830121305175
aF928.00975550967337
aF14991.524545168955
aF20965.67968032906
aF33017.513894255666
aF14648.303509420828
aF1135.1802582202051
aF8871.0139244185575
aF23379.471494884609
aF1889.0215079719185
aF1861.5690628834868
aF15310.458512034387
aF12269.091655587745
aF21119.609673346284
aF18462.280909735553
aF239.57005459822619
aF3367.9025511317086
a.(lp0
F0.0213973519611
aF0.0011574484395699999
aF0.00243477450295
aF0.0027705056215500002
aF0.00043117982122500002
aF0.0050261847768399998
aF0.0015210017961299999
aF0.00081740879346099997
aF0.00041238640075400002
aF0.00081227395938299998
aF0.0011551225930300001
aF0.00017582494443799999
aF0.0016867354019900001
aF0.0140060867583
aF0.0010019548321900001
aF0.00011401122346599999
aF0.00064549163720500002
aF0.00023541899620099999
aF0.00364681808359
aF0.0079130786851300001
aF0.0033932669561300001
aF0.0013744586275400001
aF0.0024430012710299999
aF0.0024918237199799999
aF0.0041273418027200004
aF0.0011794379005100001
aF0.0044359200309499998
aF0.00041197038200699998
aF0.00064093928535500003
aF0.0058200002976800001
aF0.00053841133040699997
aF0.0026532045732700002
aF0.0068923540011599999
aF0.00069734231676300005
aF0.0021723593144600001
aF0.0029668764137100001
aF0.0049048462822699999
aF0.00162235431608
aF0.00276247789068
aF0.00297565155982
aF0.00136694742202
aF0.00152340246838
aF0.0019072649689999999
aF0.00022387728876699999
aF0.00074081387997799997
aF0.0036588020141899999
aF0.0030957298290800002
aF0.026274209080900002
aF0.00038923901611399999
aF0.0098347199499700007
aF0.0040038341045000002
aF0.011024019787200001
aF0.00461129765513
aF0.0024380569768800001
aF0.00183174978284
aF0.0019787112158099998
aF0.00296281978538
aF0.040160393486199999
aF0.00051177045769200001
aF0.00200039918012
aF0.00087416147936599995
aF0.001675741628685461
aF0.00072875793005471588
aF0.0018181556844220339
aF0.00067244337386609119
aF0.003509611579601495
aF0.0028132881306521234
aF0.0045974328255051836
aF0.010228567325255226
aF0.014662321264104283
aF0.005882507252549329
aF0.023871042002155479
aF0.0082669487148281564
aF0.00066820379539446267
aF0.0044499788268682989
aF0.0027353813167858344
aF0.01924322517233884
aF0.00081990660544895694
aF0.0019633249396342712
aF0.00085635885588967921
aF0.0055940617056561906
aF0.0007384945004667618
aF0.0011484696236834079
aF0.0010060280763703271
aF0.00015648766395801988
aF0.0036628215944274371
aF0.0028372097066437659
aF0.0003980302617971983
aF0.0083006656472043791
aF0.00050314031879168241
aF0.0041968426440260817
aF0.0035838227432509165
aF0.0024131029180813569
aF0.0041916122629628363
aF0.0013923119250280392
aF0.0024410112191679432
aF0.0034440060025400865
aF0.0030392307028845283
aF0.0070359823576163095
aF0.0034562318606025108
aF0.0028834764710864427
aF0.0028045337885695084
aF0.0014430972030677577
aF0.0062841883455510821
aF0.0014081929774243261
aF0.0070146661041639684
aF0.0030573766857825164
aF0.0012216457191638037
aF0.037184517109457416
aF0.0010025559277936247
aF0.00030895527306115076
aF0.0020971099983960371
aF0.00019200442936029364
aF0.0041655829866293357
aF0.0049870452820790301
aF0.0070583261542340363
aF0.0036891905096594841
aF0.0031211331027445085
aF0.001118481240160153
aF0.0039976302104439585
aF0.00066413627326692738
aF0.0011999976389029832
aF0.003408710155378576
aF0.020074499873100071
aF0.003632557714511017
aF0.001798939066955652
aF0.0080304710952884498
aF0.0016782093032897353
aF0.011906242733606763
aF0.0034504703999433516
aF0.00019010859313024487
aF0.0011806316137726459
aF0.00090438508006824485
aF0.00016562909322946292
aF0.0013609944480641645
aF0.0013371646063243905
aF0.0039312521332263489
aF0.004261851788349074
aF0.0067109062918219694
aF0.0014109633270580507
aF0.0033740916305266904
aF0.0042718365302245953
aF0.0022542883741402098
aF0.00033878734169567881
aF0.00098715207537474424
aF0.0014900167090615491
aF0.00070655970043449572
aF0.0071216603041295082
aF0.0030077143947489227
aF0.002960069540373558
aF0.0024525442194483836
aF0.0057586359162223833
aF0.00052041682411777912
aF0.0033555402546251215
aF0.011945910094777254
aF0.0011055882209743421
aF0.0035631854809998363
aF0.0057599935992786603
aF0.00088915399945459629
aF0.001481716906826229
aF0.00038755476804634622
aF0.0058348839699817285
aF0.0041354462870957743
aF0.0016552370020099976
aF0.0027040098575591403
aF0.0012298901886824273
aF0.0018366071051115864
aF0.0019746187728629785
aF0.002922595360269262
aF0.0024535596460965588
aF0.0011888891260107702
aF0.0012221959226712865
aF0.0018502737420802826
aF0.0035551869047339602
aF0.0013368632193900575
aF0.0013509640482926904
aF0.0005659878427730871
aF0.0041088414855165126
aF0.0005312383219516426
aF0.00065487586650581368
aF0.00015680730408189179
aF0.00043869453113063426
aF0.00097766808416909954
aF0.0011994988378114591
aF0.001881646393849004
aF0.001734077900308114
aF0.0013563309894953567
aF0.001880405910980887
aF0.00071619675632450953
aF0.0034868152318374476
aF0.00087487020539174986
aF0.00012080208641223955
aF0.0005390023832970225
aF0.00054222894984039456
aF0.00024419843957558621
aF0.0028289873198725302
aF0.0010083415564455622
aF0.0012050859521680717
aF0.00017113155862611009
aF0.00084657700416687664
aF0.0015073783634253384
aF0.00083034924357171681
aF3.7913700917858477e-05
aF0.016542453562514218
aF0.00023413302473907559
aF0.0015108905426143564
aF0.0018200149771690937
aF0.00031236219313217611
aF0.0014048619427900325
aF0.00087438409141485666
aF0.0010128543899248688
aF0.00074191600857614491
aF0.0001455825766461584
aF0.00082575130547517218
aF0.0011119356170265205
aF0.00014727313050302414
aF0.00085537724887436745
aF0.00053112725762004146
aF0.0003515673680250429
aF0.00089318381711516088
aF0.00053324451743192434
aF0.0012086232750371658
aF0.00022196801539435486
aF0.0014851715809037467
aF0.0010097894411546667
aF0.004776806072185719
aF0.00097657513428896507
aF0.0001067917467354944
aF0.00069042273176456908
aF0.0012153729036504749
aF0.0063289406444503064
aF0.00074580178823963072
aF0.00098465525661104716
aF0.0019851673496045644
aF0.00067343897642035359
aF0.00012247090295534191
aF0.0005395765577767284
aF0.0016937678631152751
aF0.00067150329946880549
aF0.00071774473043228234
aF0.0011797411670851278
aF0.0020100790015764496
aF0.00073744769933239117
aF0.00040123263946632533
aF0.0014599834972829741
aF0.00051360734248467703
aF0.0087014017307808205
aF3.4607886760449429e-05
aF0.0041155660381411701
aF0.0034355611595767053
aF0.00067439383175330308
aF0.00088297718910765506
aF0.00099544033843593097
aF0.00295626022752096
aF8.2022610400294988e-05
aF0.00097489082650666591
aF0.0016605277648757989
aF0.0011945054179408785
aF0.0007037838294615443
aF0.0032705052857040385
aF0.00032962381156094553
aF0.00016342292100419864
aF0.0041648133231937902
aF0.0013965896686094221
aF0.00086161603599398812
aF0.0012239301905154875
aF0.012731675829601422
aF0.0029500127020724255
aF0.00023679423117940586
aF0.00059579123812148079
aF0.0011914011151754919
aF0.0014250430533891926
aF0.0009628451007796131
aF0.00033996265474723182
aF0.00057196038278314442
aF0.0002966734741832555
aF0.00026996846294815739
aF0.00099324164399703318
aF0.00072266920940830504
aF0.00012129138134796321
aF0.00057277199258623035
aF0.00070928696457583636
aF0.00016250263807415961
aF0.00068598338333394069
aF0.00073587956690065125
aF0.00031908017459363725
aF0.00055029375635861169
a.(lp0
F0.29882089066799999
aF0.0097377676452200003
aF0.0162509941496
aF0.037509476145799997
aF0.0059119254583700001
aF0.16000295483599999
aF0.072649901121800003
aF0.012696766447400001
aF0.0027653902165000002
aF0.0130620519505
aF0.0113109486285
aF0.0019373632931099999
aF0.014381493457000001
aF0.061129806874799998
aF0.0146207277429
aF0.0049677361390199999
aF0.00558757307311
aF0.016623613534099999
aF0.041767923217500003
aF0.047581883397700003
aF0.071914563161400005
aF0.0082930690616600002
aF0.027438724702000001
aF0.188025178609
aF0.112523669051
aF0.0094032545518600002
aF0.14925581332000001
aF0.0043262350086600001
aF0.00330822154642
aF0.035200401874800002
aF0.0022767606896400001
aF0.027836097937900001
aF0.030947862428799999
aF0.047689200768300001
aF0.024771729599200001
aF0.035587161747800002
aF0.039972924953100002
aF0.0148152849769
aF0.032912256996700001
aF0.032906079328100003
aF0.0087480436797399991
aF0.0169012847838
aF0.023682995159700002
aF0.0022259765018500001
aF0.0050963671842999998
aF0.027536832696600001
aF0.034137978186700002
aF0.080518390842300003
aF0.0041503777807799999
aF0.085426968980900006
aF0.0458908311675
aF0.119790237324
aF0.0208093824263
aF0.017752574649
aF0.0114938321238
aF0.024309899909699999
aF0.029467010799599999
aF0.44361190783400001
aF0.0054545800053399998
aF0.0117245605198
aF0.054452777280299999
aF0.013813986578644103
aF0.014898840862111981
aF0.1767919737267335
aF0.036657031214807761
aF0.055337983853957627
aF0.065848284929697187
aF0.031108490260666609
aF0.28283459890010504
aF0.039838690874349193
aF0.020351521814931797
aF0.52593059817966259
aF0.14766569853066791
aF0.0072370260158466848
aF0.034536463935857402
aF0.035961973271186505
aF0.089867806067600878
aF0.0068887214984594278
aF0.017660817967329875
aF0.0041568703638379953
aF0.073208018001216069
aF0.0080845215469126097
aF0.01547325639611836
aF0.016348562075269236
aF0.0007569003866046306
aF0.034177545793565335
aF0.023139545554007268
aF0.0033954209534426904
aF0.068921284970115931
aF0.015083056706731282
aF0.022903626917003875
aF0.018040585665323818
aF0.014397484341297895
aF0.02033052786634533
aF0.0055666487904037602
aF0.23879708343925823
aF0.02314694181463697
aF0.034412893845241793
aF0.041244128313556977
aF0.03400961623088964
aF0.020771999610331392
aF0.022257512108844208
aF0.013925274526395328
aF0.10045096806499661
aF0.0083916812082538376
aF0.12042493554192472
aF0.033952623123868826
aF0.017512653765619581
aF0.29320014313181786
aF0.073701911345892546
aF0.0064866086030182478
aF0.022249453084316754
aF0.0015630441893983013
aF0.024461217468907025
aF0.34646315376775311
aF0.048124746354498378
aF0.06736857086528919
aF0.030125197240946224
aF0.0084459399264603698
aF0.04707755288430758
aF0.024524333598367101
aF0.008402059620205413
aF0.010123178775942408
aF0.1616390930123717
aF0.018372842538724871
aF0.040393585552019239
aF0.0405809620394555
aF0.027985974716265013
aF0.47867709073994186
aF0.024784848860868788
aF0.008647409083227758
aF0.0075527521508547014
aF0.014189303308271464
aF0.0015082682741656766
aF0.0098483811231332447
aF0.010916824261654138
aF0.044715665162936687
aF0.030036018401075077
aF0.041147137972733755
aF0.0097743526545511824
aF0.040135269355899332
aF0.057790683146755499
aF0.023163985864264772
aF0.0051744477353695686
aF0.020384661553725054
aF0.016764350621297639
aF0.004310901560063524
aF0.069568938677055103
aF0.041436179361534327
aF0.029150261561086091
aF0.015218330250906896
aF0.15039038232011226
aF0.013385046074323592
aF0.074072142078130329
aF0.14402219478461514
aF0.006758243571702429
aF0.056888407888893003
aF0.045484659689117565
aF0.0074757914457100711
aF0.022431685062560647
aF0.0066548515344175578
aF0.022232801696183076
aF0.018241226325224676
aF0.014756935103593827
aF0.03042018279670641
aF0.022606894667583553
aF0.027439367222827603
aF0.11487721476877259
aF0.016434820937471398
aF0.028410762556402507
aF0.020198284232424205
aF0.030578401769151768
aF0.029554090329491741
aF0.029882046101378758
aF0.017480433077025806
aF0.019904835790770146
aF0.0055612401947993644
aF0.028100401232756946
aF0.025335020668702166
aF0.047393400801397353
aF0.0016295077556117135
aF0.0092769568003828046
aF0.0056928821534194107
aF0.018077659658607196
aF0.0072428180968129186
aF0.014789865088456127
aF0.037346026080888044
aF0.094672276590293439
aF0.036895996136586173
aF0.0080708704745544764
aF0.0072309668237918153
aF0.0012288845545997541
aF0.012034720268909614
aF0.0066682391855373124
aF0.0022572996403524073
aF0.020667286458406528
aF0.028874111793350286
aF0.016629269604749922
aF0.0011873309797078263
aF0.0055593095781692435
aF0.0099708854076688558
aF0.01230821023355981
aF0.00036450903927629121
aF0.008780111389116111
aF0.0019615716714917919
aF0.0041382445549492629
aF0.024000909682568627
aF0.006768635605406817
aF0.087439940444956621
aF0.026787294126916883
aF0.020043239672480676
aF0.0059699748854606062
aF0.0031118601941028385
aF0.0052250342989696615
aF0.0099633538282141391
aF0.0015041270371132717
aF0.011570134348595707
aF0.0057484443316391572
aF0.0042523009691931403
aF0.0068260612624383129
aF0.011148684138978963
aF0.0088116950010530999
aF0.0026165816190510532
aF0.013853756251495503
aF0.027360417128464279
aF0.046924492141529155
aF0.015043658403307422
aF0.00078953466753246989
aF0.061776819654388693
aF0.03049384133271521
aF0.15943633862413251
aF0.031371411491212087
aF0.0098065915800291704
aF0.0070836557303292184
aF0.0059790720363486942
aF0.0011701578871124692
aF0.047791596885546947
aF0.017231845417908068
aF0.011891135452598879
aF0.028240923114188722
aF0.0098113082646043483
aF0.0099000807770937022
aF0.0074906750790375608
aF0.0055790809875114825
aF0.0082582562420067101
aF0.0037963113593507056
aF0.0082249023521557569
aF0.00036106291720724629
aF0.012189046204772956
aF0.034005573749521421
aF0.012257823370884711
aF0.0096875414856110124
aF0.0088050169716271647
aF0.01447161942016539
aF0.0007328971482765611
aF0.0086716529954514367
aF0.0097689215516247006
aF0.0082188689417667243
aF0.0056056890208394296
aF0.0039545948629733365
aF0.003247384461066009
aF0.0016230279293556892
aF0.023469545584879955
aF0.013490132610132278
aF0.00546192821687336
aF0.0083197105241256345
aF0.0070693646099684489
aF0.014527910169960417
aF0.0014868221298893574
aF0.0068600182933237896
aF0.022566043998021774
aF0.0066498254347717332
aF0.0098227772015218665
aF0.0027728822389767641
aF0.0032117578188524619
aF0.0019781888673082414
aF0.001889426329433625
aF0.008488184641535737
aF0.0034790490357517493
aF0.0073153399418054554
aF0.036067559330114546
aF0.011084319201002654
aF0.001626250453134664
aF0.0073335264145625917
aF0.0084297892977350814
aF0.010651778293557377
aF0.0053603119896116882
a.(lp0
F0.048228849331800001
aF0.00150029934201
aF0.0022936918040899999
aF0.0059521392007799998
aF0.00095688859506099996
aF0.025751596911399999
aF0.0113384584951
aF0.0019833101651100002
aF0.00030003457438000002
aF0.0020881908522400001
aF0.00168439307062
aF0.00027063785674800002
aF0.0024549872557100001
aF0.0111225219207
aF0.0023626928841899999
aF0.00078815082306700002
aF0.00088890972327899996
aF0.0026677488439800002
aF0.0052218285564799996
aF0.0079516627938900006
aF0.0117050389468
aF0.00149228908951
aF0.0042806246493699998
aF0.0300136077348
aF0.0187438342692
aF0.00136550747549
aF0.0241368723751
aF0.00056028546858099995
aF0.00071544798590200004
aF0.0054726645571699997
aF0.00042545829460000003
aF0.0034934624553900001
aF0.0046204827723799998
aF0.00751343438091
aF0.0037029170976000001
aF0.0056062135094500001
aF0.0059466013545099996
aF0.0024496767451
aF0.0049183853443200004
aF0.0055442035854900004
aF0.00103087019615
aF0.00272102709412
aF0.00366045187025
aF0.000340943363689
aF0.00078907440582100003
aF0.0055010461552600001
aF0.0053058656513499999
aF0.0177970555414
aF0.000639443121761
aF0.0149778170302
aF0.0075136207366800004
aF0.021302725884499999
aF0.0046903062178299997
aF0.0028006481241999999
aF0.00233516666407
aF0.0038777724957400001
aF0.0043411795229200004
aF0.075658470031200006
aF0.00073282284295399995
aF0.00147318970693
aF0.00857346802478
aF0.0020486718157232244
aF0.0023852028561593677
aF0.027914191325164393
aF0.0059389245048960789
aF0.0091326306939923541
aF0.010717398879841045
aF0.0049739416180387798
aF0.046705594830989579
aF0.0099868346698305417
aF0.0045304106836772332
aF0.09299198165042713
aF0.024226903105881485
aF0.0011617340746787918
aF0.0049391636009593837
aF0.0057258475009353063
aF0.016162797232426553
aF0.00087392558097190004
aF0.0027408652786538781
aF0.00074895996200570599
aF0.011007923398262344
aF0.0011907494556316024
aF0.0024968186109916323
aF0.0024079812419438712
aF0.00018690618550400832
aF0.0049536018622429265
aF0.002878687853336938
aF0.00054660674564128682
aF0.0097750324171942266
aF0.0024113465429508917
aF0.0029942957039462109
aF0.0028003624969657388
aF0.0022933723699857635
aF0.0033913537693250587
aF0.00099088249517782019
aF0.039225744504360512
aF0.0034428554384517999
aF0.0055997261751606665
aF0.0067501375987609157
aF0.0049756928688702131
aF0.0024701457988414708
aF0.0034650473861635445
aF0.0023247652411581203
aF0.016469680348910855
aF0.001413383913400708
aF0.019333139458440902
aF0.0050156590460825566
aF0.0028217551464957678
aF0.047239739626914246
aF0.011859392507674732
aF0.0010673555750344635
aF0.0035145595102699647
aF0.00023231456555339124
aF0.0041744125804785859
aF0.058266425412288769
aF0.0066403631048821002
aF0.011040874837631214
aF0.0045281731403057036
aF0.0013756442270898592
aF0.0073469895639548628
aF0.0040377483831372362
aF0.0011654479725089232
aF0.0023658933895033597
aF0.023401865594260829
aF0.0041788468962321457
aF0.0067169925754425822
aF0.0054827419556931437
aF0.0046022365361251243
aF0.079967535731544748
aF0.0046950634703342362
aF0.0015272791320536641
aF0.0014410464185831769
aF0.0023088100580505306
aF0.00023704857735245749
aF0.0014337965494750934
aF0.0017027038570577454
aF0.0068524971843163009
aF0.0048073434689177774
aF0.005886623165624637
aF0.0013927222664021144
aF0.0066588655045571815
aF0.0093068730735648333
aF0.0033381215859912693
aF0.00081662455685762333
aF0.0033197276582225313
aF0.0018238900344503806
aF0.00074929931709743277
aF0.011523456547772048
aF0.006976497253533223
aF0.0047124281957435336
aF0.0024918105198901202
aF0.024790328397662671
aF0.0020669830652827142
aF0.011871854823154166
aF0.023990242835008231
aF0.0013952705021887495
aF0.009117267137739915
aF0.0074059186762325891
aF0.0012154711851399672
aF0.0035081519892421502
aF0.0010896106541337222
aF0.0049619433628089529
aF0.0039631538108138237
aF0.0020273566044617837
aF0.0054085063066263471
aF0.0035644087783306059
aF0.004023140512886287
aF0.018432972056325589
aF0.0030295385573479933
aF0.0045756786036741173
aF0.0033047913810523581
aF0.004806375629705581
aF0.0047318315845857606
aF0.0047094627089917622
aF0.0028835929688196121
aF0.0029731403655509333
aF0.00056659606180810371
aF0.011998353334768504
aF0.0040570063881612333
aF0.0070697866834515035
aF0.00024260700836896949
aF0.00051285353862760125
aF0.001468575029245731
aF0.0022836642069164162
aF0.0018419449011246737
aF0.0020432280874637197
aF0.0059687973976071448
aF0.023249326546302861
aF0.0059469886840012986
aF0.0059349179694165926
aF0.00084306643052023769
aF0.00021055449036463635
aF0.0019666930431409438
aF0.00086702089046988731
aF0.0003701353215442725
aF0.0024422231781884474
aF0.0035999677910557395
aF0.0018103261888303037
aF0.00025097496456516857
aF0.00086165710245603481
aF0.0015002258059038261
aF0.00083572733558019588
aF7.4673096130857975e-05
aF0.00083774878307653214
aF0.00032046838357473108
aF0.0032888536631837844
aF0.0034502968638130201
aF0.0010893668218790648
aF0.012389337115325754
aF0.004020981208663287
aF0.0030298323979756183
aF0.0025875220461506515
aF0.00038581376691022552
aF0.00083369813012785425
aF0.001004350746407451
aF0.00020648625991256622
aF0.0017770252962732804
aF0.00086184378344592526
aF0.00055521766050759447
aF0.0022982103507807133
aF0.0014025874435173776
aF0.0014284360026564785
aF0.00026489081861132997
aF0.0020142827656477492
aF0.0037230205600867856
aF0.0070359077304189598
aF0.0023984289050373378
aF0.00015485141513101475
aF0.0095863013429775303
aF0.0045828371390442485
aF0.024093368417271985
aF0.0045785062893984822
aF0.0014990692176408409
aF0.0016636932438569476
aF0.000979132973935913
aF0.00015050934964787622
aF0.0074416853360221805
aF0.0023246688718718202
aF0.0018684166229534387
aF0.0041732590841094541
aF0.0016612774702271635
aF0.0039735727286644897
aF0.0012062108674282003
aF0.00067281563451042207
aF0.0027781550635589888
aF0.00069645637153059245
aF0.0061433582241120542
aF3.6383799224613567e-05
aF0.0023887874372201397
aF0.0042823669102724461
aF0.0020427742470630729
aF0.0014857121611652449
aF0.0014377639451978914
aF0.0029574883020981745
aF8.1518820192188433e-05
aF0.0013811560269379468
aF0.00097595255559695688
aF0.0034144434595906755
aF0.00090636557536221698
aF0.0040855392832958122
aF0.00052373319986229487
aF0.00024341503341572353
aF0.0045576054880851757
aF0.0020815111285191197
aF0.00070426145146791229
aF0.003596336227688852
aF0.0037190730382512549
aF0.0023086215947548307
aF0.00023573549926332989
aF0.00084978821903700097
aF0.0035155312761874402
aF0.00098050045612565963
aF0.0014677723145825113
aF0.00041533584702535108
aF0.00070543480209133487
aF0.00048051945648744859
aF0.0013294338438736598
aF0.000887751607800255
aF0.00082570125814944158
aF0.0014098458971367762
aF0.0057727825583150354
aF0.0014574126258254324
aF0.00024231748880265965
aF0.00097859184165119927
aF0.0011796581283106753
aF0.0015082919122137231
aF0.00091908004468535542
a.(lp0
F0.038095802977701564
aF0.015404742115684471
aF0.036927130698338834
aF0.049860771920479934
aF0.089815903395642008
aF0.01498852603768982
aF0.015326052915287516
aF0.016862775178117288
aF0.033906626303451363
aF0.016994340348063922
aF0.017886834491122893
aF0.070325441840758104
aF0.053722781195945625
aF0.073717906424905624
aF0.016602123909415883
aF0.016094071505357719
aF0.014849391542016642
aF0.035732113568865589
aF0.015706149802800228
aF0.014964990765094876
aF0.018172798310004176
aF0.034568096338323619
aF0.016993928625154444
aF0.014566051619280655
aF0.016215934029425786
aF0.01951652071701997
aF0.017167120224450768
aF0.014309954616373478
aF0.015856998230040619
aF0.014968398506340286
aF0.015515400662274829
aF0.047578702938189811
aF0.017075940821910073
aF0.12354744312691041
aF0.052498438954172111
aF0.034755443413179724
aF0.016223797477025768
aF0.014955142290123022
aF0.016354792522368475
aF0.016799369577810176
aF0.014582615868738633
aF0.018801473280723353
aF0.017566322527646207
aF0.015169574194391628
aF0.016030115212904362
aF0.0167766249262635
aF0.016811340538557998
aF0.014830545516282536
aF0.016770704546677249
aF0.038492786251136085
aF0.037587359357784719
aF0.034885430866930092
aF0.014536239747164481
aF0.095591441305773781
aF0.054407500854388363
aF0.12551503204305792
aF0.039901826328945025
aF0.01864925947926099
aF0.017099885524482446
aF0.016843396746484992
aF0.014706646646495144
aF0.094136310508233109
aF0.032746946493888894
aF0.019581844238783057
aF0.036921049315457088
aF0.016466154782807121
aF0.016952111660896402
aF0.017967220491542514
aF0.015812587348278253
aF0.017719960535866254
aF0.016078129066670634
aF0.016870343438894275
aF0.014729234458741277
aF0.016921335529037691
aF0.050914225061583905
aF0.035614043282384114
aF0.018351940803393408
aF0.018173563944500312
aF0.017570528365135278
aF0.014539700116901404
aF0.017427462651175802
aF0.017646414698265341
aF0.016548574247340277
aF0.016822125538108516
aF0.015619963236902129
aF0.015472989945181139
aF0.014747119613931237
aF0.05194154097592403
aF0.03713383663523713
aF0.016192575777444724
aF0.016949564246481287
aF0.017354086193076615
aF0.017189634553581756
aF0.01475869600319901
aF0.016422472268965153
aF0.051678072469589477
aF0.016645074165089764
aF0.016960417835633457
aF0.015491684509436221
aF0.015479515247758049
aF0.014706602972571538
aF0.014822430655637143
aF0.016739825201769559
aF0.015896667763341969
aF0.015684627216783657
aF0.056343003085332216
aF0.017491082705211446
aF0.014619004012778587
aF0.018102414370546008
aF0.017708304446914919
aF0.016309049393664937
aF0.016697581132712618
a.(lp0
F2.0410649828807848
aF0.9587181917054507
aF8.266033220129561
aF1.7822633352713755
aF2.9291779393785906
aF0.75739080132358139
aF0.72658250306654604
aF0.82743531770378376
aF2.0853881814618136
aF0.77676188614718888
aF0.91511036737051965
aF2.6310661345212014
aF4.5944825719414846
aF2.6005456894129924
aF1.9500129752191575
aF0.86828288519316188
aF0.73417387852226601
aF0.85887802402666147
aF0.83817016232620323
aF0.74445780881208601
aF2.1950611940880109
aF1.9466127341063133
aF1.89146107921072
aF0.72967554447644711
aF0.8315389617711304
aF0.99207774522341341
aF0.79360519356811476
aF0.72295754934314072
aF0.8105687322542785
aF0.74882934578420879
aF2.0265103906875046
aF1.7796634010405561
aF0.80684078945941351
aF6.1644792409014562
aF1.8405141715939974
aF1.9415762823127594
aF0.99965957741947753
aF0.8385652408475891
aF0.79658822709523591
aF0.90381011124027311
aF0.75013857391112337
aF0.85502809541089786
aF0.79036166072882952
aF0.96264128243811964
aF0.88117097472400641
aF0.95826798037467775
aF0.90689644016230531
aF0.83686898496497841
aF0.85079029591964583
aF1.8943151223399675
aF2.5977092562214597
aF0.89392527510400721
aF0.73883540962975014
aF3.681285123547462
aF2.0133903991187614
aF8.4107190355975643
aF1.9400537888101999
aF0.84614361489289125
aF0.8315290727663549
aF0.80853822238112716
aF0.73049418833785262
aF2.8400154083773437
aF0.93200473398707495
aF0.85683833823062328
aF1.7375781555432155
aF0.89599040548714359
aF1.8299853291889749
aF0.82612204535308231
aF1.7727633501714104
aF0.94754397689275005
aF0.7422907809052407
aF3.2677240454126535
aF0.73493831082727001
aF0.84659462232008198
aF6.8140891586905292
aF0.88572772203216366
aF0.91670154015203187
aF0.884748824840076
aF0.92799448329685841
aF0.72319713018588783
aF0.85353855835167036
aF0.82453479024846088
aF1.8978261639059126
aF0.81898611710492053
aF0.90451155918492188
aF0.77147735690318064
aF0.72974488621614619
aF1.8751441336303185
aF0.91779152865531399
aF0.94665050126449524
aF0.93244967571357851
aF0.93417366728383544
aF0.88179595990561543
aF0.74202179809792468
aF1.8401372998512935
aF1.8691467826906834
aF0.86713930604531297
aF0.86714994241173715
aF0.78419962399715959
aF0.77028896335827424
aF0.72842754410957267
aF0.81422436142344068
aF0.88630767622922202
aF0.7791604611681221
aF0.77535949389820169
aF2.0151200952892423
aF0.86487005248317694
aF0.74132708121013302
aF0.79235242437433817
aF0.86674261245128781
aF0.98946451294533588
aF0.76394725444298839
a.(lp0
F2.4915352369797814e-05
aF0.0062489679563845569
aF0.011914927615422934
aF0.00087361534496599859
aF0.00041613361148055251
aF0.0011257063303332024
aF0.0019706041157820787
aF0.0023169151221401735
aF0.015529853413610552
aF0.011338213998599127
aF0.00081001394532850476
aF0.0027169372491112486
aF0.0057326604558952865
aF7.1593680060748956e-05
aF0.012877247146495775
aF0.006230350635344069
aF0.016472660546415545
aF0.0055929101036141732
aF0.0025050964746610826
aF0.00095779334129361844
aF0.0016184104368046227
aF0.0043241817540313971
aF0.011494849710918636
aF0.0039006916042078066
aF0.0027909189954982401
aF0.01850140099587139
aF0.0022492491825972759
aF0.015437946434251114
aF0.009904706593998034
aF0.0023618796812151237
aF0.006097877101266227
aF0.0081296939723424499
aF0.0055934675128071062
aF0.0049221069233414049
aF0.00012819241141357181
aF0.0065268442407638797
aF0.00045759434395143691
aF0.00071671895567557587
aF0.005285372215911654
aF0.002495504567251638
aF0.00079810467612416707
aF0.0097009058552721805
aF0.007927417475947782
aF0.0029297487153165692
aF0.0097506136279539909
aF0.0016317907196356338
aF0.00012358984056469642
aF0.00022572166662924699
aF0.00093288817080583474
aF0.00055939490731951732
aF0.0018411363494443668
aF9.0573779277413732e-05
aF0.0016765405646837605
aF0.00083603432453743635
aF0.0033310649163111193
aF0.00066387147032836524
aF0.0040706705006544044
aF3.8370861259338704e-06
aF0.011180031793076849
aF0.0083444852026095754
aF0.00024111248040561655
aF0.0087226630975941796
aF0.014503685767979738
aF0.0088047505829871673
aF0.015350408675501085
aF0.0033936092456886744
aF0.0084122643988352539
aF0.00097667073069689428
aF3.2733378743736717e-05
aF0.00011274817290404779
aF0.0029927448411870635
aF6.7644769781452089e-06
aF0.0004263313208424333
aF0.0016510430455045117
aF0.0013410041490659285
aF0.0070113247121523616
aF4.5174474155401016e-05
aF0.0033484809215780106
aF0.0082785098857707084
aF0.0087716583736368661
aF0.00022278675195293378
aF0.0031920320742689448
aF0.0038518411741761075
aF0.011989470637919646
aF0.0205244452669292
aF0.0057892082002929833
aF0.003200525840678892
aF0.010589700238072246
aF0.00064764973787175364
aF0.01236185295560562
aF0.0020441179599660656
aF0.00021806086749728547
aF0.00045076298768856175
aF0.00015514824734374583
aF0.010428883557191227
aF0.00036967826762831759
aF0.0038506553998319901
aF0.0023107398265090526
aF0.0036781224803807242
aF0.00085023291956195742
aF0.0086286844123651205
aF0.0045296640468574434
aF0.00062160669806637469
aF0.00062652443830887611
aF0.0069268189219951716
aF0.0010045093563058878
aF0.0050602982730923928
aF0.0024049878072977772
aF4.9303390104996316e-06
aF0.00028300786522766365
aF0.00074005196514600124
aF0.0011156816491637571
aF0.0091079445576732459
aF0.001354276862480057
aF5.073655404229894e-05
aF0.0010268633582075669
aF0.0051210599737580341
aF0.0060516946293880406
aF0.002689705192899584
aF0.0044943968176601023
aF0.00015502901057790725
aF0.0057985127285921862
aF0.0050108513980434656
aF4.5587996626550617e-05
aF0.0013527316274309625
aF0.0037475322667679658
aF0.0012121754152306819
aF0.0057576775581573867
aF0.00013190990312817932
aF0.002093672653780642
aF0.002407351500768581
aF0.0068286366484441932
aF0.0032754182525170611
aF0.0068971662496471265
aF0.0043007494220660232
aF0.0025725231506158611
aF0.00048141194262674701
aF0.0031858561892040972
aF0.00092079003732595548
aF0.0087167916795800986
aF0.0023729386617728989
aF0.001726306443980839
aF0.0083404408168947907
aF0.0049673599123436409
aF0.0029842270037674177
aF0.0059840175415195032
aF0.0015193676776637404
aF0.0021435933790021123
aF0.0024012544296888043
aF0.010816156393527121
aF0.014517633564892409
aF0.00092230874238895168
aF0.01378028635501093
aF0.0011358166813316443
aF7.6953476245677653e-05
aF0.024750145678235844
aF0.00520855338675084
aF0.0018142073751879222
aF7.0449848130847714e-05
aF0.00029443520095373706
aF0.0065897335758473667
aF0.0036831626575935666
aF0.008582220165753331
aF0.0093901179224519602
aF0.0098516123446558915
aF0.0031818571234185616
aF0.016585896975975626
aF0.017223477616835754
aF0.0039420001635568453
aF0.0088807028358485335
aF0.0016171841986704701
aF0.0032620390143143635
aF0.0014210896852679107
aF0.0089800787836070012
aF0.014872879118231357
aF0.093620183256855935
aF0.33787853530903289
aF0.019397729278134331
aF0.32713692618794155
aF0.1453073982402171
aF0.36559821103063161
aF0.10146967360277406
aF0.24219734112792513
aF0.11887882726706506
aF0.34888005194321653
aF0.23756015823543344
aF0.096170400359854663
aF0.25085848561512969
aF0.17252374781625804
aF0.29382186111753922
aF0.052668172389110854
aF0.25316465202543259
aF0.13623126344790729
aF0.25145494639266036
aF0.0072381628607954699
aF0.043744030557463363
aF0.15239515941464798
aF0.0040917380687736414
aF0.30619603729820433
aF0.17629769219776423
aF0.2288293435063917
aF0.31302187724407254
aF0.28522411527766123
aF0.13810314133721416
aF0.0048549175928930544
aF0.31959753619558362
aF0.01597244225348415
aF0.32162665344882113
aF0.035198159654765554
aF0.2216160805096985
aF0.30236698977723592
aF0.33018128297345251
aF0.36013553878318227
aF0.2149127547741555
aF0.28727640428025619
aF0.21159678225454365
aF0.3275350753386097
aF0.25784249683598148
aF0.31936794178781303
aF0.23937584439226223
aF0.3028195636813627
aF0.17363558071483368
aF0.20279470826801221
aF0.12244512599779914
aF0.18733069927341264
aF0.0072865938967913314
aF0.11316852251197482
aF0.03939219178871551
aF0.3048393698089451
aF0.14791789542113221
aF0.0021616721599916474
aF0.35788675063837561
aF0.33601179876842019
aF0.28769176745318947
aF0.24826115219813705
aF0.35351363464845054
aF0.057567158101714325
aF0.12953273786752387
aF0.22773579543545885
aF0.15899734465330817
aF0.29690481171457184
aF0.18849045203557416
aF0.34504328871692497
aF0.32529324517103125
aF0.01855837095488461
aF0.25015518363222483
aF0.2991818478578453
aF0.36139940092894096
aF0.041778728048070736
aF0.013760396915242593
aF0.22696762863018941
aF0.19682408902786017
aF0.18178414582579583
aF0.076563466355785315
aF0.16287012590994465
aF0.31609469394989415
aF0.32674386556281565
aF0.27615574714897773
aF0.10407891382557827
aF0.28134357988627945
aF0.32181793077981968
aF0.19166954717726425
aF0.0047638176922215839
aF0.14684184744223475
aF0.31194285618161366
aF0.10996381855441369
aF0.055825152527027515
aF0.10330986886355459
aF0.023212261042838803
aF0.34692926178893085
aF0.094525836346974479
aF0.31055426365244826
aF0.094859054365458981
aF0.27927020885906972
aF0.023371692059929543
aF0.19132873275969503
aF0.22854853119487351
aF0.031803344943645194
aF0.29151591555411788
aF0.18233740038217988
aF0.11360235185138065
aF0.32090646362796471
aF0.094788686047116363
aF0.34175333185385154
aF0.29611125197555876
aF0.24078917945773698
aF0.31909749078395028
a.(lp0
F7.7592213061335524
aF260.05707517468278
aF155.86868819012287
aF61.361960022182544
aF388.22985563575298
aF13.932805823771197
aF30.996718836390386
aF180.14630020461587
aF1178.5223112969175
aF173.61131187088628
aF219.03141778382397
aF1305.183223773156
aF157.9802603329708
aF35.687673394758043
aF156.02131823014946
aF456.66815793120168
aF426.54908942234084
aF134.50524388570764
aF70.245545015845778
aF48.460128377999403
aF31.126824699807401
aF264.70837555221578
aF83.255773873905568
aF11.998350382488868
aF19.677664453835835
aF263.23122539723573
aF14.982607729628221
aF699.49101551748686
aF766.68978250109967
aF66.605713442649744
aF1187.7811300189533
aF100.8363515855355
aF90.993732262338384
aF47.200648513078384
aF96.859141050392793
aF64.640320611474195
aF60.177029730047451
aF153.26923621843952
aF73.52399216611218
aF69.43401404431647
aF336.70661091993799
aF135.08847171833796
aF101.3187184799295
aF1097.9005441186041
aF463.36242562350958
aF86.575153637527862
aF70.278093912013546
aF28.824894471233488
aF585.76350397643341
aF26.020997105732203
aF49.262643305936571
aF18.60642290668244
aF106.12422887678294
aF130.35052939763537
aF194.85023847647136
aF93.005997414671285
aF81.064487195242165
aF4.9553879609666112
aF482.8151902163994
aF237.97387772909957
aF41.362215186692737
aF179.32301603924742
aF152.62454162675681
aF13.39070085258027
aF61.161279508227793
aF41.401524193714934
aF35.321136496775772
aF75.050031176376677
aF7.9050270707682877
aF58.775897821935651
aF112.68420346945732
aF4.1972598185768852
aF15.089383768729871
aF320.41241727749411
aF71.971833665600357
aF64.351250583630787
aF25.504167232804726
aF409.57427619771477
aF147.16558042797513
aF628.71375700586759
aF33.521638213863334
aF301.21376072840792
aF144.72565722346292
aF148.917221062012
aF3007.1121935588817
aF73.856042718256489
aF124.06094487536031
aF693.13474011392395
aF37.100473586634607
aF150.18434215283517
aF128.14084289182014
aF136.94640906893713
aF164.11915423006269
aF113.48447663459297
aF502.01018354364146
aF9.4625344654526344
aF108.96012916625455
aF70.137059263195042
aF58.950547404231905
aF73.396132363421003
aF162.62187183482106
aF111.55935334199287
aF167.45337382851139
aF22.28702885798014
aF289.33803006079182
aF18.847046235771273
aF72.269104305676436
aF131.57374935710243
aF8.0575778082142993
aF30.478882605107497
aF345.51252431675812
aF111.83722779409005
aF1560.5474957058507
aF102.51289383279217
aF6.3037653551134749
aF55.678534365623719
aF34.107501789202445
aF81.516037589858541
aF295.98825753969038
aF49.545361199011296
aF91.086787185730913
aF312.43195031154795
aF229.44191303159897
aF15.893298220727635
aF120.51348324263857
aF55.787892258540793
aF70.124100323766527
aF81.434430660569987
aF4.7190789783384623
aF90.655118889978624
aF254.38623650052878
aF317.07283751377958
aF160.69997291184956
aF1561.8906360520541
aF313.12430690050564
aF227.43137755538075
aF55.063398800403164
aF77.266230564975501
aF64.47160464277087
aF264.30294816966563
aF56.427521068444278
aF40.182092802383949
aF110.38554616735389
aF469.21960987606343
aF111.77924140951244
aF199.15773114586008
aF608.58215524691639
aF32.729427518431002
aF54.105536261546703
aF79.304908743407424
aF151.15000031785411
aF14.597430632851026
aF176.40493057836042
aF30.351703371409162
aF15.635093227056183
aF332.01706402105054
aF41.256756772226588
aF57.583717942100371
aF312.98780608620211
aF105.37117787876251
aF352.63354484759435
aF116.17268367676508
aF122.27155228991903
aF188.05044488467374
aF74.287158837693013
aF101.882808405623
aF90.371388930780483
aF19.913595261868405
aF140.31322692615154
aF81.312930885526299
aF112.76377457711349
aF74.284428843659356
aF78.184501323977187
aF77.029732266248416
aF129.0082769038261
aF121.25504725808649
aF604.21593688558312
aF113.99031850117704
aF91.439782024472393
aF50.597691988367586
aF1444.6133174547977
aF1305.8318538980245
aF408.06124318069106
aF144.16566790805899
aF568.27323635375251
aF224.96035700018146
aF61.466904272213668
aF36.486777355756082
aF61.203603362743308
aF344.05613196248288
aF454.042965755853
aF1953.1862828979715
aF187.41276827822531
aF383.75182231461019
aF1289.7114736848478
aF167.31951645699596
aF99.334980311442507
aF168.36187711383778
aF2086.9939069958136
aF579.1311809800053
aF354.94048494658841
aF583.0743743696413
aF4470.6826186296548
aF483.5328832163612
aF1263.2428256918472
aF741.82355139318167
aF101.1176995545471
aF350.48599228833365
aF28.760807914135807
aF90.159570867106993
aF121.69915862181027
aF431.36620704470158
aF902.73875848400041
aF569.53652029472687
aF366.73934604348614
aF1797.0349348894842
aF209.08136720593436
aF423.32705433263061
aF634.68483866824238
aF492.36399908751417
aF257.03686042407605
aF280.86966899817384
aF1528.2636167526696
aF211.08002235591914
aF97.615666497767009
aF67.619916585803296
aF151.54315766488966
aF2621.0722897605542
aF39.075597445951658
aF79.980415122169461
aF19.338371773598269
aF82.952549777445427
aF248.5010431833314
aF354.31593896653817
aF390.64650547771561
aF3301.2891979544111
aF48.225074527617835
aF151.48445557698133
aF198.77662118904027
aF92.273290313041713
aF248.41281489262926
aF292.52044793110656
aF319.21344594000988
aF466.85982900646383
aF340.94152102438181
aF998.42971163045695
aF352.24991965332708
aF1113.848765370238
aF240.59914104415944
aF87.122625024859758
aF181.90311523283756
aF246.58530225979482
aF370.66584562804201
aF226.0704533541425
aF4362.6834814295926
aF294.24946621122706
aF368.37646946102905
aF337.8524927252767
aF409.36833869778621
aF716.15223165555801
aF729.53654205101918
aF1903.9560855102422
aF98.160200108422231
aF185.13005721447669
aF507.52443946393726
aF316.60665087403208
aF406.33033723120911
aF205.94069138195459
aF1698.1327906090498
aF403.26000097356552
aF104.8518755649072
aF387.17746493506894
aF247.86450710087141
aF970.55345201601858
aF897.95644093676242
aF1690.8643058560449
aF1424.1222979878976
aF410.7909888486696
aF662.28944753397354
aF318.52791514811946
aF66.876843669747657
aF242.21415089795104
aF1456.6568966189641
aF380.28380250615163
aF331.42066549889779
aF248.29911324238913
aF631.22948797065328
a.